target datalayout = "e-m:e-p270:32:32-p271:32:32-p272:64:64-i64:64-i128:128-f80:128-n8:16:32:64-S128"
target triple = "x86_64-pc-linux-gnu"

%struct.nameData = type { [64 x i8] }
%struct.FormData_pg_class = type { i32, %struct.nameData, i32, i32, i32, i32, i32, i32, i32, i32, float, i32, i32, i8, i8, i8, i8, i16, i16, i8, i8, i8, i8, i8, i8, i8, i8, i32, i32, i32 }
%struct.FdwRoutine = type { i32, ptr, ptr, ptr, ptr, ptr, ptr, ptr, ptr, ptr, ptr, ptr, ptr, ptr, ptr, ptr, ptr, ptr, ptr, ptr, ptr, ptr, ptr, ptr, ptr, ptr, ptr, ptr, ptr, ptr, ptr, ptr, ptr, ptr, ptr, ptr, ptr, ptr, ptr, ptr, ptr, ptr, ptr, ptr, ptr, ptr }

@.str.2 = private unnamed_addr constant [12 x i8] c"tablecmds.c\00", align 1
@allowSystemTableMods = external global i8, align 1
@object_access_hook = external global ptr, align 8
@.str.55 = private unnamed_addr constant [44 x i8] c"permission denied: \22%s\22 is a system catalog\00", align 1
@.str.60 = private unnamed_addr constant [20 x i8] c"\22%s\22 is not a table\00", align 1
@.str.88 = private unnamed_addr constant [35 x i8] c"cannot truncate foreign table \22%s\22\00", align 1
@__func__.truncate_check_rel = private unnamed_addr constant [19 x i8] c"truncate_check_rel\00", align 1
@IsBinaryUpgrade = external global i8, align 1

; Function Attrs: nounwind uwtable
define internal void @truncate_check_rel(i32 noundef %0, ptr noundef %1) #0 {
  %3 = alloca i32, align 4
  %4 = alloca ptr, align 8
  %5 = alloca ptr, align 8
  %6 = alloca i32, align 4
  %7 = alloca ptr, align 8
  store i32 %0, ptr %3, align 4
  store ptr %1, ptr %4, align 8
  call void @llvm.lifetime.start.p0(i64 8, ptr %5) #12
  %8 = load ptr, ptr %4, align 8
  %9 = getelementptr inbounds nuw %struct.FormData_pg_class, ptr %8, i32 0, i32 1
  %10 = getelementptr inbounds nuw %struct.nameData, ptr %9, i32 0, i32 0
  %11 = getelementptr inbounds [64 x i8], ptr %10, i64 0, i64 0
  store ptr %11, ptr %5, align 8
  %12 = load ptr, ptr %4, align 8
  %13 = getelementptr inbounds nuw %struct.FormData_pg_class, ptr %12, i32 0, i32 16
  %14 = load i8, ptr %13, align 1
  %15 = sext i8 %14 to i32
  %16 = icmp eq i32 %15, 102
  br i1 %16, label %17, label %40

17:                                               ; preds = %2
  call void @llvm.lifetime.start.p0(i64 4, ptr %6) #12
  %18 = load i32, ptr %3, align 4
  %19 = call i32 @GetForeignServerIdByRelId(i32 noundef %18)
  store i32 %19, ptr %6, align 4
  call void @llvm.lifetime.start.p0(i64 8, ptr %7) #12
  %20 = load i32, ptr %6, align 4
  %21 = call ptr @GetFdwRoutineByServerId(i32 noundef %20)
  store ptr %21, ptr %7, align 8
  %22 = load ptr, ptr %7, align 8
  %23 = getelementptr inbounds nuw %struct.FdwRoutine, ptr %22, i32 0, i32 34
  %24 = load ptr, ptr %23, align 8
  %25 = icmp ne ptr %24, null
  br i1 %25, label %39, label %26

26:                                               ; preds = %17
  br label %27

27:                                               ; preds = %26
  br i1 true, label %28, label %30

28:                                               ; preds = %27
  %29 = call zeroext i1 @errstart_cold(i32 noundef 21, ptr noundef null) #13
  br i1 %29, label %32, label %36

30:                                               ; preds = %27
  %31 = call zeroext i1 @errstart(i32 noundef 21, ptr noundef null)
  br i1 %31, label %32, label %36

32:                                               ; preds = %30, %28
  %33 = call i32 @errcode(i32 noundef 1088)
  %34 = load ptr, ptr %5, align 8
  %35 = call i32 (ptr, ...) @errmsg(ptr noundef @.str.88, ptr noundef %34)
  call void @errfinish(ptr noundef @.str.2, i32 noundef 2354, ptr noundef @__func__.truncate_check_rel)
  br label %36

36:                                               ; preds = %32, %30, %28
  unreachable

37:                                               ; No predecessors!
  br label %38

38:                                               ; preds = %37
  br label %39

39:                                               ; preds = %38, %17
  call void @llvm.lifetime.end.p0(i64 8, ptr %7) #12
  call void @llvm.lifetime.end.p0(i64 4, ptr %6) #12
  br label %66

40:                                               ; preds = %2
  %41 = load ptr, ptr %4, align 8
  %42 = getelementptr inbounds nuw %struct.FormData_pg_class, ptr %41, i32 0, i32 16
  %43 = load i8, ptr %42, align 1
  %44 = sext i8 %43 to i32
  %45 = icmp ne i32 %44, 114
  br i1 %45, label %46, label %65

46:                                               ; preds = %40
  %47 = load ptr, ptr %4, align 8
  %48 = getelementptr inbounds nuw %struct.FormData_pg_class, ptr %47, i32 0, i32 16
  %49 = load i8, ptr %48, align 1
  %50 = sext i8 %49 to i32
  %51 = icmp ne i32 %50, 112
  br i1 %51, label %52, label %65

52:                                               ; preds = %46
  br label %53

53:                                               ; preds = %52
  br i1 true, label %54, label %56

54:                                               ; preds = %53
  %55 = call zeroext i1 @errstart_cold(i32 noundef 21, ptr noundef null) #13
  br i1 %55, label %58, label %62

56:                                               ; preds = %53
  %57 = call zeroext i1 @errstart(i32 noundef 21, ptr noundef null)
  br i1 %57, label %58, label %62

58:                                               ; preds = %56, %54
  %59 = call i32 @errcode(i32 noundef 151027844)
  %60 = load ptr, ptr %5, align 8
  %61 = call i32 (ptr, ...) @errmsg(ptr noundef @.str.60, ptr noundef %60)
  call void @errfinish(ptr noundef @.str.2, i32 noundef 2360, ptr noundef @__func__.truncate_check_rel)
  br label %62

62:                                               ; preds = %58, %56, %54
  unreachable

63:                                               ; No predecessors!
  br label %64

64:                                               ; preds = %63
  br label %65

65:                                               ; preds = %64, %46, %40
  br label %66

66:                                               ; preds = %65, %39
  %67 = load i8, ptr @allowSystemTableMods, align 1, !range !6, !noundef !7
  %68 = trunc i8 %67 to i1
  br i1 %68, label %92, label %69

69:                                               ; preds = %66
  %70 = load i32, ptr %3, align 4
  %71 = load ptr, ptr %4, align 8
  %72 = call zeroext i1 @IsSystemClass(i32 noundef %70, ptr noundef %71)
  br i1 %72, label %73, label %92

73:                                               ; preds = %69
  %74 = load i8, ptr @IsBinaryUpgrade, align 1, !range !6, !noundef !7
  %75 = trunc i8 %74 to i1
  br i1 %75, label %76, label %79

76:                                               ; preds = %73
  %77 = load i32, ptr %3, align 4
  %78 = icmp ne i32 %77, 2613
  br i1 %78, label %79, label %92

79:                                               ; preds = %76, %73
  br label %80

80:                                               ; preds = %79
  br i1 true, label %81, label %83

81:                                               ; preds = %80
  %82 = call zeroext i1 @errstart_cold(i32 noundef 21, ptr noundef null) #13
  br i1 %82, label %85, label %89

83:                                               ; preds = %80
  %84 = call zeroext i1 @errstart(i32 noundef 21, ptr noundef null)
  br i1 %84, label %85, label %89

85:                                               ; preds = %83, %81
  %86 = call i32 @errcode(i32 noundef 16797828)
  %87 = load ptr, ptr %5, align 8
  %88 = call i32 (ptr, ...) @errmsg(ptr noundef @.str.55, ptr noundef %87)
  call void @errfinish(ptr noundef @.str.2, i32 noundef 2374, ptr noundef @__func__.truncate_check_rel)
  br label %89

89:                                               ; preds = %85, %83, %81
  unreachable

90:                                               ; No predecessors!
  br label %91

91:                                               ; preds = %90
  br label %92

92:                                               ; preds = %91, %76, %69, %66
  br label %93

93:                                               ; preds = %92
  %94 = load ptr, ptr @object_access_hook, align 8
  %95 = icmp ne ptr %94, null
  br i1 %95, label %96, label %98

96:                                               ; preds = %93
  %97 = load i32, ptr %3, align 4
  call void @RunObjectTruncateHook(i32 noundef %97)
  br label %98

98:                                               ; preds = %96, %93
  br label %99

99:                                               ; preds = %98
  br label %100

100:                                              ; preds = %99
  call void @llvm.lifetime.end.p0(i64 8, ptr %5) #12
  ret void
}