; Function Attrs: nounwind uwtable
define internal fastcc void @truncate_check_rel(i32 noundef %0, ptr noundef %1) unnamed_addr #0 {
  %3 = getelementptr inbounds nuw i8, ptr %1, i64 4
  %4 = getelementptr inbounds nuw i8, ptr %1, i64 115
  %5 = load i8, ptr %4, align 1
  switch i8 %5, label %15 [
    i8 102, label %6
    i8 114, label %19
    i8 112, label %19
  ]

6:                                                ; preds = %2
  %7 = tail call i32 @GetForeignServerIdByRelId(i32 noundef %0) #15
  %8 = tail call ptr @GetFdwRoutineByServerId(i32 noundef %7) #15
  %9 = getelementptr inbounds nuw i8, ptr %8, i64 272
  %10 = load ptr, ptr %9, align 8
  %.not16 = icmp eq ptr %10, null
  br i1 %.not16, label %11, label %19

11:                                               ; preds = %6
  %12 = tail call zeroext i1 @errstart_cold(i32 noundef 21, ptr noundef null) #16
  tail call void @llvm.assume(i1 %12)
  %13 = tail call i32 @errcode(i32 noundef 1088) #15
  %14 = tail call i32 (ptr, ...) @errmsg(ptr noundef nonnull @.str.88, ptr noundef nonnull %3) #15
  tail call void @errfinish(ptr noundef nonnull @.str.2, i32 noundef 2354, ptr noundef nonnull @__func__.truncate_check_rel) #15
  unreachable

15:                                               ; preds = %2
  %16 = tail call zeroext i1 @errstart_cold(i32 noundef 21, ptr noundef null) #16
  tail call void @llvm.assume(i1 %16)
  %17 = tail call i32 @errcode(i32 noundef 151027844) #15
  %18 = tail call i32 (ptr, ...) @errmsg(ptr noundef nonnull @.str.60, ptr noundef nonnull %3) #15
  tail call void @errfinish(ptr noundef nonnull @.str.2, i32 noundef 2360, ptr noundef nonnull @__func__.truncate_check_rel) #15
  unreachable

19:                                               ; preds = %2, %2, %6
  %20 = load i8, ptr @allowSystemTableMods, align 1, !range !6, !noundef !7
  %21 = trunc nuw i8 %20 to i1
  br i1 %21, label %32, label %22

22:                                               ; preds = %19
  %23 = tail call zeroext i1 @IsSystemClass(i32 noundef %0, ptr noundef nonnull %1) #15
  br i1 %23, label %24, label %32

24:                                               ; preds = %22
  %25 = load i8, ptr @IsBinaryUpgrade, align 1, !range !6, !noundef !7
  %26 = trunc nuw i8 %25 to i1
  %27 = icmp eq i32 %0, 2613
  %or.cond.not = and i1 %27, %26
  br i1 %or.cond.not, label %32, label %28

28:                                               ; preds = %24
  %29 = tail call zeroext i1 @errstart_cold(i32 noundef 21, ptr noundef null) #16
  tail call void @llvm.assume(i1 %29)
  %30 = tail call i32 @errcode(i32 noundef 16797828) #15
  %31 = tail call i32 (ptr, ...) @errmsg(ptr noundef nonnull @.str.55, ptr noundef nonnull %3) #15
  tail call void @errfinish(ptr noundef nonnull @.str.2, i32 noundef 2374, ptr noundef nonnull @__func__.truncate_check_rel) #15
  unreachable

32:                                               ; preds = %19, %22, %24
  %33 = load ptr, ptr @object_access_hook, align 8
  %.not = icmp eq ptr %33, null
  br i1 %.not, label %35, label %34

34:                                               ; preds = %32
  tail call void @RunObjectTruncateHook(i32 noundef %0) #15
  br label %35

35:                                               ; preds = %34, %32
  ret void
}